; Function Attrs: mustprogress nounwind uwtable
define hidden void @_ZN13SharedRuntime27on_slowpath_allocation_exitEP10JavaThread(ptr noundef %0) local_unnamed_addr #0 align 2 {
  %2 = getelementptr inbounds i8, ptr %0, i64 1016
  %3 = load ptr, ptr %2, align 8
  %4 = icmp eq ptr %3, null
  br i1 %4, label %9, label %5

5:                                                ; preds = %1
  %6 = load ptr, ptr @_ZN10BarrierSet12_barrier_setE, align 8
  %7 = load ptr, ptr %6, align 8
  %8 = load ptr, ptr %7, align 8
  tail call void %8(ptr noundef nonnull align 8 dereferenceable(64) %6, ptr noundef nonnull %0, ptr noundef nonnull %3) #18
  br label %9

9:                                                ; preds = %1, %5
  ret void
}